target datalayout = "e-m:e-p270:32:32-p271:32:32-p272:64:64-i64:64-i128:128-f80:128-n8:16:32:64-S128"
target triple = "x86_64-pc-linux-gnu"

%struct.ossl_qrx_st = type { ptr, ptr, ptr, i64, i64, i64, %struct.ossl_list_st_urxe, %struct.ossl_list_st_urxe, %struct.ossl_list_st_rxe, %struct.ossl_list_st_rxe, [3 x i64], %struct.ossl_qrl_enc_level_set_st, i64, i64, i64, ptr, ptr, ptr, ptr, i8, i8, ptr, ptr, ptr }
%struct.ossl_list_st_urxe = type { ptr, ptr, i64 }
%struct.ossl_list_st_rxe = type { ptr, ptr, i64 }
%struct.ossl_qrl_enc_level_set_st = type { [4 x %struct.ossl_qrl_enc_level_st] }
%struct.ossl_qrl_enc_level_st = type { %struct.quic_hdr_protector_st, ptr, [2 x ptr], ptr, ptr, i64, i64, i32, i32, i8, i8, [2 x [16 x i8]], [64 x i8] }
%struct.quic_hdr_protector_st = type { ptr, ptr, ptr, ptr, i32 }

; Function Attrs: nounwind uwtable
define i32 @ossl_qrx_key_update_timeout(ptr noundef %0, i32 noundef %1) #0 {
  %3 = alloca i32, align 4
  %4 = alloca ptr, align 8
  %5 = alloca i32, align 4
  %6 = alloca ptr, align 8
  %7 = alloca i32, align 4
  store ptr %0, ptr %4, align 8, !tbaa !15
  store i32 %1, ptr %5, align 4, !tbaa !37
  call void @llvm.lifetime.start.p0(i64 8, ptr %6) #8
  %8 = load ptr, ptr %4, align 8, !tbaa !15
  %9 = getelementptr inbounds nuw %struct.ossl_qrx_st, ptr %8, i32 0, i32 11
  %10 = call ptr @ossl_qrl_enc_level_set_get(ptr noundef %9, i32 noundef 3, i32 noundef 1)
  store ptr %10, ptr %6, align 8, !tbaa !101
  %11 = load ptr, ptr %6, align 8, !tbaa !101
  %12 = icmp eq ptr %11, null
  br i1 %12, label %13, label %14

13:                                               ; preds = %2
  store i32 0, ptr %3, align 4
  store i32 1, ptr %7, align 4
  br label %42

14:                                               ; preds = %2
  %15 = load ptr, ptr %6, align 8, !tbaa !101
  %16 = getelementptr inbounds nuw %struct.ossl_qrl_enc_level_st, ptr %15, i32 0, i32 9
  %17 = load i8, ptr %16, align 8, !tbaa !108
  %18 = zext i8 %17 to i32
  %19 = icmp eq i32 %18, 2
  br i1 %19, label %20, label %26

20:                                               ; preds = %14
  %21 = load ptr, ptr %4, align 8, !tbaa !15
  %22 = getelementptr inbounds nuw %struct.ossl_qrx_st, ptr %21, i32 0, i32 11
  %23 = call i32 @ossl_qrl_enc_level_set_key_update_done(ptr noundef %22, i32 noundef 3)
  %24 = icmp ne i32 %23, 0
  br i1 %24, label %26, label %25

25:                                               ; preds = %20
  store i32 0, ptr %3, align 4
  store i32 1, ptr %7, align 4
  br label %42

26:                                               ; preds = %20, %14
  %27 = load i32, ptr %5, align 4, !tbaa !37
  %28 = icmp ne i32 %27, 0
  br i1 %28, label %29, label %41

29:                                               ; preds = %26
  %30 = load ptr, ptr %6, align 8, !tbaa !101
  %31 = getelementptr inbounds nuw %struct.ossl_qrl_enc_level_st, ptr %30, i32 0, i32 9
  %32 = load i8, ptr %31, align 8, !tbaa !108
  %33 = zext i8 %32 to i32
  %34 = icmp eq i32 %33, 3
  br i1 %34, label %35, label %41

35:                                               ; preds = %29
  %36 = load ptr, ptr %4, align 8, !tbaa !15
  %37 = getelementptr inbounds nuw %struct.ossl_qrx_st, ptr %36, i32 0, i32 11
  %38 = call i32 @ossl_qrl_enc_level_set_key_cooldown_done(ptr noundef %37, i32 noundef 3)
  %39 = icmp ne i32 %38, 0
  br i1 %39, label %41, label %40

40:                                               ; preds = %35
  store i32 0, ptr %3, align 4
  store i32 1, ptr %7, align 4
  br label %42

41:                                               ; preds = %35, %29, %26
  store i32 1, ptr %3, align 4
  store i32 1, ptr %7, align 4
  br label %42

42:                                               ; preds = %41, %40, %25, %13
  call void @llvm.lifetime.end.p0(i64 8, ptr %6) #8
  %43 = load i32, ptr %3, align 4
  ret i32 %43
}