; Function Attrs: nounwind uwtable
define range(i32 0, 2) i32 @ossl_qrx_key_update_timeout(ptr noundef %0, i32 noundef %1) local_unnamed_addr #0 {
  %3 = getelementptr inbounds nuw i8, ptr %0, i64 168
  %4 = tail call ptr @ossl_qrl_enc_level_set_get(ptr noundef nonnull %3, i32 noundef 3, i32 noundef 1) #11
  %5 = icmp eq ptr %4, null
  br i1 %5, label %19, label %6

6:                                                ; preds = %2
  %7 = getelementptr inbounds nuw i8, ptr %4, i64 104
  %8 = load i8, ptr %7, align 8, !tbaa !98
  %9 = icmp eq i8 %8, 2
  br i1 %9, label %10, label %12

10:                                               ; preds = %6
  %11 = tail call i32 @ossl_qrl_enc_level_set_key_update_done(ptr noundef nonnull %3, i32 noundef 3) #11
  %.not = icmp eq i32 %11, 0
  br i1 %.not, label %19, label %12

12:                                               ; preds = %10, %6
  %.not8 = icmp eq i32 %1, 0
  br i1 %.not8, label %18, label %13

13:                                               ; preds = %12
  %14 = load i8, ptr %7, align 8, !tbaa !98
  %15 = icmp eq i8 %14, 3
  br i1 %15, label %16, label %18

16:                                               ; preds = %13
  %17 = tail call i32 @ossl_qrl_enc_level_set_key_cooldown_done(ptr noundef nonnull %3, i32 noundef 3) #11
  %.not9 = icmp eq i32 %17, 0
  br i1 %.not9, label %19, label %18

18:                                               ; preds = %16, %13, %12
  br label %19

19:                                               ; preds = %16, %10, %2, %18
  %.0 = phi i32 [ 1, %18 ], [ 0, %2 ], [ 0, %10 ], [ 0, %16 ]
  ret i32 %.0
}